target datalayout = "e-m:e-p270:32:32-p271:32:32-p272:64:64-i64:64-i128:128-f80:128-n8:16:32:64-S128"
target triple = "x86_64-pc-linux-gnu"

@.str.3 = private unnamed_addr constant [2 x i8] c"\0A\00", align 1
@.str.4 = private unnamed_addr constant [37 x i8] c"    write_edif [options] [filename]\0A\00", align 1
@.str.5 = private unnamed_addr constant [51 x i8] c"Write the current design to an EDIF netlist file.\0A\00", align 1
@.str.6 = private unnamed_addr constant [21 x i8] c"    -top top_module\0A\00", align 1
@.str.7 = private unnamed_addr constant [55 x i8] c"        set the specified module as design top module\0A\00", align 1
@.str.8 = private unnamed_addr constant [15 x i8] c"    -nogndvcc\0A\00", align 1
@.str.9 = private unnamed_addr constant [74 x i8] c"        do not create \22GND\22 and \22VCC\22 cells. (this will produce an error\0A\00", align 1
@.str.10 = private unnamed_addr constant [78 x i8] c"        if the design contains constant nets. use \22hilomap\22 to map to custom\0A\00", align 1
@.str.11 = private unnamed_addr constant [33 x i8] c"        constant drivers first)\0A\00", align 1
@.str.12 = private unnamed_addr constant [14 x i8] c"    -gndvccy\0A\00", align 1
@.str.13 = private unnamed_addr constant [72 x i8] c"        create \22GND\22 and \22VCC\22 cells with \22Y\22 outputs. (the default is\0A\00", align 1
@.str.14 = private unnamed_addr constant [43 x i8] c"        \22G\22 for \22GND\22 and \22P\22 for \22VCC\22.)\0A\00", align 1
@.str.15 = private unnamed_addr constant [15 x i8] c"    -attrprop\0A\00", align 1
@.str.16 = private unnamed_addr constant [52 x i8] c"        create EDIF properties for cell attributes\0A\00", align 1
@.str.17 = private unnamed_addr constant [11 x i8] c"    -keep\0A\00", align 1
@.str.18 = private unnamed_addr constant [75 x i8] c"        create extra KEEP nets by allowing a cell to drive multiple nets.\0A\00", align 1
@.str.19 = private unnamed_addr constant [28 x i8] c"    -pvector {par|bra|ang}\0A\00", align 1
@.str.20 = private unnamed_addr constant [73 x i8] c"        sets the delimiting character for module port rename clauses to\0A\00", align 1
@.str.21 = private unnamed_addr constant [58 x i8] c"        parentheses, square brackets, or angle brackets.\0A\00", align 1
@.str.22 = private unnamed_addr constant [13 x i8] c"    -lsbidx\0A\00", align 1
@.str.23 = private unnamed_addr constant [70 x i8] c"        use index 0 for the LSB bit of a net or port instead of MSB.\0A\00", align 1
@.str.24 = private unnamed_addr constant [75 x i8] c"Unfortunately there are different \22flavors\22 of the EDIF file format. This\0A\00", align 1
@.str.25 = private unnamed_addr constant [76 x i8] c"command generates EDIF files for the Xilinx place&route tools. It might be\0A\00", align 1
@.str.26 = private unnamed_addr constant [77 x i8] c"necessary to make small modifications to this command when a different tool\0A\00", align 1
@.str.27 = private unnamed_addr constant [14 x i8] c"is targeted.\0A\00", align 1

; Function Attrs: mustprogress uwtable
define internal void @_ZN12_GLOBAL__N_111EdifBackend4helpEv(ptr noundef nonnull align 8 dereferenceable(136) %0) unnamed_addr #4 align 2 {
  %2 = alloca ptr, align 8
  store ptr %0, ptr %2, align 8
  call void (ptr, ...) @_ZN5Yosys3logEPKcz(ptr noundef @.str.3)
  call void (ptr, ...) @_ZN5Yosys3logEPKcz(ptr noundef @.str.4)
  call void (ptr, ...) @_ZN5Yosys3logEPKcz(ptr noundef @.str.3)
  call void (ptr, ...) @_ZN5Yosys3logEPKcz(ptr noundef @.str.5)
  call void (ptr, ...) @_ZN5Yosys3logEPKcz(ptr noundef @.str.3)
  call void (ptr, ...) @_ZN5Yosys3logEPKcz(ptr noundef @.str.6)
  call void (ptr, ...) @_ZN5Yosys3logEPKcz(ptr noundef @.str.7)
  call void (ptr, ...) @_ZN5Yosys3logEPKcz(ptr noundef @.str.3)
  call void (ptr, ...) @_ZN5Yosys3logEPKcz(ptr noundef @.str.8)
  call void (ptr, ...) @_ZN5Yosys3logEPKcz(ptr noundef @.str.9)
  call void (ptr, ...) @_ZN5Yosys3logEPKcz(ptr noundef @.str.10)
  call void (ptr, ...) @_ZN5Yosys3logEPKcz(ptr noundef @.str.11)
  call void (ptr, ...) @_ZN5Yosys3logEPKcz(ptr noundef @.str.3)
  call void (ptr, ...) @_ZN5Yosys3logEPKcz(ptr noundef @.str.12)
  call void (ptr, ...) @_ZN5Yosys3logEPKcz(ptr noundef @.str.13)
  call void (ptr, ...) @_ZN5Yosys3logEPKcz(ptr noundef @.str.14)
  call void (ptr, ...) @_ZN5Yosys3logEPKcz(ptr noundef @.str.3)
  call void (ptr, ...) @_ZN5Yosys3logEPKcz(ptr noundef @.str.15)
  call void (ptr, ...) @_ZN5Yosys3logEPKcz(ptr noundef @.str.16)
  call void (ptr, ...) @_ZN5Yosys3logEPKcz(ptr noundef @.str.3)
  call void (ptr, ...) @_ZN5Yosys3logEPKcz(ptr noundef @.str.17)
  call void (ptr, ...) @_ZN5Yosys3logEPKcz(ptr noundef @.str.18)
  call void (ptr, ...) @_ZN5Yosys3logEPKcz(ptr noundef @.str.3)
  call void (ptr, ...) @_ZN5Yosys3logEPKcz(ptr noundef @.str.19)
  call void (ptr, ...) @_ZN5Yosys3logEPKcz(ptr noundef @.str.20)
  call void (ptr, ...) @_ZN5Yosys3logEPKcz(ptr noundef @.str.21)
  call void (ptr, ...) @_ZN5Yosys3logEPKcz(ptr noundef @.str.3)
  call void (ptr, ...) @_ZN5Yosys3logEPKcz(ptr noundef @.str.22)
  call void (ptr, ...) @_ZN5Yosys3logEPKcz(ptr noundef @.str.23)
  call void (ptr, ...) @_ZN5Yosys3logEPKcz(ptr noundef @.str.3)
  call void (ptr, ...) @_ZN5Yosys3logEPKcz(ptr noundef @.str.24)
  call void (ptr, ...) @_ZN5Yosys3logEPKcz(ptr noundef @.str.25)
  call void (ptr, ...) @_ZN5Yosys3logEPKcz(ptr noundef @.str.26)
  call void (ptr, ...) @_ZN5Yosys3logEPKcz(ptr noundef @.str.27)
  call void (ptr, ...) @_ZN5Yosys3logEPKcz(ptr noundef @.str.3)
  ret void
}